target datalayout = "e-m:e-p270:32:32-p271:32:32-p272:64:64-i64:64-i128:128-f80:128-n8:16:32:64-S128"
target triple = "x86_64-pc-linux-gnu"

%struct.lua_State = type { %struct.GCRef, i8, i8, i8, i8, %struct.MRef, %struct.GCRef, ptr, ptr, %struct.MRef, %struct.MRef, %struct.GCRef, %struct.GCRef, ptr, i32 }
%struct.MRef = type { i64 }
%struct.GCRef = type { i64 }
%union.TValue = type { i64 }

@.str.4 = private unnamed_addr constant [24 x i8] c"store to dead GC object\00", align 1

; Function Attrs: alwaysinline nounwind uwtable
define internal void @checklivetv(ptr noundef %0, ptr noundef %1, ptr noundef %2) #1 {
  %4 = alloca ptr, align 8
  %5 = alloca ptr, align 8
  %6 = alloca ptr, align 8
  store ptr %0, ptr %4, align 8, !tbaa !4
  store ptr %1, ptr %5, align 8, !tbaa !17
  store ptr %2, ptr %6, align 8, !tbaa !25
  ret void
}

; Function Attrs: alwaysinline nounwind uwtable
define internal void @setgcVraw(ptr noundef %0, ptr noundef %1, i32 noundef %2) #1 {
  %4 = alloca ptr, align 8
  %5 = alloca ptr, align 8
  %6 = alloca i32, align 4
  store ptr %0, ptr %4, align 8, !tbaa !17
  store ptr %1, ptr %5, align 8, !tbaa !27
  store i32 %2, ptr %6, align 4, !tbaa !29
  %7 = load ptr, ptr %5, align 8, !tbaa !27
  %8 = ptrtoint ptr %7 to i64
  %9 = load i32, ptr %6, align 4, !tbaa !29
  %10 = zext i32 %9 to i64
  %11 = shl i64 %10, 47
  %12 = or i64 %8, %11
  %13 = load ptr, ptr %4, align 8, !tbaa !17
  %14 = getelementptr inbounds nuw %struct.GCRef, ptr %13, i32 0, i32 0
  store i64 %12, ptr %14, align 8, !tbaa !16
  ret void
}

; Function Attrs: alwaysinline nounwind uwtable
define internal void @setgcV(ptr noundef %0, ptr noundef %1, ptr noundef %2, i32 noundef %3) #1 {
  %5 = alloca ptr, align 8
  %6 = alloca ptr, align 8
  %7 = alloca ptr, align 8
  %8 = alloca i32, align 4
  store ptr %0, ptr %5, align 8, !tbaa !4
  store ptr %1, ptr %6, align 8, !tbaa !17
  store ptr %2, ptr %7, align 8, !tbaa !27
  store i32 %3, ptr %8, align 4, !tbaa !29
  %9 = load ptr, ptr %6, align 8, !tbaa !17
  %10 = load ptr, ptr %7, align 8, !tbaa !27
  %11 = load i32, ptr %8, align 4, !tbaa !29
  call void @setgcVraw(ptr noundef %9, ptr noundef %10, i32 noundef %11)
  %12 = load ptr, ptr %5, align 8, !tbaa !4
  %13 = load ptr, ptr %6, align 8, !tbaa !17
  call void @checklivetv(ptr noundef %12, ptr noundef %13, ptr noundef @.str.4)
  ret void
}

; Function Attrs: alwaysinline nounwind uwtable
define internal void @setfuncV(ptr noundef %0, ptr noundef %1, ptr noundef %2) #1 {
  %4 = alloca ptr, align 8
  %5 = alloca ptr, align 8
  %6 = alloca ptr, align 8
  store ptr %0, ptr %4, align 8, !tbaa !4
  store ptr %1, ptr %5, align 8, !tbaa !17
  store ptr %2, ptr %6, align 8, !tbaa !34
  %7 = load ptr, ptr %4, align 8, !tbaa !4
  %8 = load ptr, ptr %5, align 8, !tbaa !17
  %9 = load ptr, ptr %6, align 8, !tbaa !34
  call void @setgcV(ptr noundef %7, ptr noundef %8, ptr noundef %9, i32 noundef -9)
  ret void
}

; Function Attrs: nounwind uwtable
define internal i32 @lj_cf_coroutine_create(ptr noundef %0) #3 {
  %2 = alloca ptr, align 8
  %3 = alloca ptr, align 8
  store ptr %0, ptr %2, align 8, !tbaa !4
  call void @llvm.lifetime.start.p0(i64 8, ptr %3) #11
  %4 = load ptr, ptr %2, align 8, !tbaa !4
  %5 = getelementptr inbounds nuw %struct.lua_State, ptr %4, i32 0, i32 7
  %6 = load ptr, ptr %5, align 8, !tbaa !32
  %7 = load ptr, ptr %2, align 8, !tbaa !4
  %8 = getelementptr inbounds nuw %struct.lua_State, ptr %7, i32 0, i32 8
  %9 = load ptr, ptr %8, align 8, !tbaa !9
  %10 = icmp ult ptr %6, %9
  br i1 %10, label %11, label %19

11:                                               ; preds = %1
  %12 = load ptr, ptr %2, align 8, !tbaa !4
  %13 = getelementptr inbounds nuw %struct.lua_State, ptr %12, i32 0, i32 7
  %14 = load ptr, ptr %13, align 8, !tbaa !32
  %15 = load i64, ptr %14, align 8, !tbaa !16
  %16 = ashr i64 %15, 47
  %17 = trunc i64 %16 to i32
  %18 = icmp eq i32 %17, -9
  br i1 %18, label %21, label %19

19:                                               ; preds = %11, %1
  %20 = load ptr, ptr %2, align 8, !tbaa !4
  call void @lj_err_argt(ptr noundef %20, i32 noundef 1, i32 noundef 6) #10
  unreachable

21:                                               ; preds = %11
  %22 = load ptr, ptr %2, align 8, !tbaa !4
  %23 = call ptr @lua_newthread(ptr noundef %22)
  store ptr %23, ptr %3, align 8, !tbaa !4
  %24 = load ptr, ptr %2, align 8, !tbaa !4
  %25 = load ptr, ptr %3, align 8, !tbaa !4
  %26 = getelementptr inbounds nuw %struct.lua_State, ptr %25, i32 0, i32 8
  %27 = load ptr, ptr %26, align 8, !tbaa !9
  %28 = getelementptr inbounds nuw %union.TValue, ptr %27, i32 1
  store ptr %28, ptr %26, align 8, !tbaa !9
  %29 = load ptr, ptr %2, align 8, !tbaa !4
  %30 = getelementptr inbounds nuw %struct.lua_State, ptr %29, i32 0, i32 7
  %31 = load ptr, ptr %30, align 8, !tbaa !32
  %32 = getelementptr inbounds nuw %struct.GCRef, ptr %31, i32 0, i32 0
  %33 = load i64, ptr %32, align 8, !tbaa !16
  %34 = and i64 %33, 140737488355327
  %35 = inttoptr i64 %34 to ptr
  call void @setfuncV(ptr noundef %24, ptr noundef %27, ptr noundef %35)
  call void @llvm.lifetime.end.p0(i64 8, ptr %3) #11
  ret i32 1
}