; Function Attrs: nounwind uwtable
define internal noundef i32 @lj_cf_coroutine_create(ptr noundef %0) #2 {
  %2 = getelementptr inbounds nuw i8, ptr %0, i64 32
  %3 = load ptr, ptr %2, align 8, !tbaa !19
  %4 = getelementptr inbounds nuw i8, ptr %0, i64 40
  %5 = load ptr, ptr %4, align 8, !tbaa !4
  %6 = icmp ult ptr %3, %5
  br i1 %6, label %7, label %10

7:                                                ; preds = %1
  %8 = load i64, ptr %3, align 8, !tbaa !14
  %.mask = and i64 %8, -140737488355328
  %9 = icmp eq i64 %.mask, -1266637395197952
  br i1 %9, label %11, label %10

10:                                               ; preds = %7, %1
  tail call void @lj_err_argt(ptr noundef nonnull %0, i32 noundef 1, i32 noundef 6) #10
  unreachable

11:                                               ; preds = %7
  %12 = tail call ptr @lua_newthread(ptr noundef nonnull %0) #11
  %13 = getelementptr inbounds nuw i8, ptr %12, i64 40
  %14 = load ptr, ptr %13, align 8, !tbaa !4
  %15 = getelementptr inbounds nuw i8, ptr %14, i64 8
  store ptr %15, ptr %13, align 8, !tbaa !4
  %16 = load ptr, ptr %2, align 8, !tbaa !19
  %17 = load i64, ptr %16, align 8, !tbaa !14
  %18 = and i64 %17, 140737488355327
  %19 = or disjoint i64 %18, -1266637395197952
  store i64 %19, ptr %14, align 8, !tbaa !14
  ret i32 1
}